; Function Attrs: mustprogress uwtable
define void @_ZNK3gmx4Bias13updateHistoryEPNS_14AwhBiasHistoryE(ptr noundef nonnull align 8 dereferenceable(556) %0, ptr noundef %1) local_unnamed_addr #0 align 2 {
  %.not = icmp eq ptr %1, null
  br i1 %.not, label %3, label %4

3:                                                ; preds = %2
  tail call void @_ZN3gmx8internal13assertHandlerEPKcS2_S2_S2_i(ptr noundef nonnull @.str.13, ptr noundef nonnull @.str.18, ptr noundef nonnull @"__PRETTY_FUNCTION__._ZZNK3gmx4Bias13updateHistoryEPNS_14AwhBiasHistoryEENK3$_0clEv", ptr noundef nonnull @.str.2, i32 noundef 348) #16
  unreachable

4:                                                ; preds = %2
  %5 = getelementptr inbounds i8, ptr %0, i64 216
  %6 = getelementptr inbounds i8, ptr %0, i64 24
  tail call void @_ZNK3gmx9BiasState13updateHistoryEPNS_14AwhBiasHistoryERKNS_8BiasGridE(ptr noundef nonnull align 8 dereferenceable(216) %5, ptr noundef nonnull %1, ptr noundef nonnull align 8 dereferenceable(48) %6)
  %7 = getelementptr inbounds i8, ptr %0, i64 488
  %8 = load ptr, ptr %7, align 8
  %.not4 = icmp eq ptr %8, null
  br i1 %.not4, label %10, label %_ZNK3gmx4Bias20forceCorrelationGridEv.exit

_ZNK3gmx4Bias20forceCorrelationGridEv.exit:       ; preds = %4
  %9 = getelementptr inbounds i8, ptr %1, i64 72
  tail call void @_ZN3gmx28updateCorrelationGridHistoryEPNS_22CorrelationGridHistoryERKNS_15CorrelationGridE(ptr noundef nonnull %9, ptr noundef nonnull align 8 dereferenceable(40) %8)
  br label %10

10:                                               ; preds = %_ZNK3gmx4Bias20forceCorrelationGridEv.exit, %4
  ret void
}